target datalayout = "e-m:e-p270:32:32-p271:32:32-p272:64:64-i64:64-i128:128-f80:128-n8:16:32:64-S128"
target triple = "x86_64-pc-linux-gnu"

%struct._value_string_ext = type { ptr, i32, i32, ptr, ptr }

@gsm_rr_elem_strings_ext = hidden global %struct._value_string_ext { ptr @_try_val_to_str_ext_init, i32 0, i32 89, ptr @gsm_rr_elem_strings, ptr @.str.77 }, align 8
@.str.84 = private unnamed_addr constant [1 x i8] zeroinitializer, align 1
@hf_gsm_a_rr_ec_used_dl_cc = internal global i32 0, align 4
@hf_gsm_a_rr_ec_page_extension_exist = internal global i32 0, align 4
@hf_gsm_a_rr_ec_page_extension = internal global i32 0, align 4
@hf_gsm_a_rr_ec_last_tdma_frame = internal global i32 0, align 4
@hf_gsm_a_rr_ec_echoed_random_bits = internal global i32 0, align 4
@hf_gsm_a_rr_ec_wait_timer = internal global i32 0, align 4
@hf_gsm_a_rr_ec_req_ref_2_present = internal global i32 0, align 4
@hf_gsm_a_rr_ec_req_ref_3_present = internal global i32 0, align 4
@ett_gsm_rr_elem = hidden global [90 x i32] zeroinitializer, align 16
@.str.3076 = private unnamed_addr constant [5 x i8] c"%s%s\00", align 1
@.str.3077 = private unnamed_addr constant [5 x i8] c" - 1\00", align 1
@.str.3078 = private unnamed_addr constant [5 x i8] c" - 2\00", align 1
@.str.3079 = private unnamed_addr constant [5 x i8] c" - 3\00", align 1

; Function Attrs: null_pointer_is_valid sspstrong uwtable
define internal zeroext i16 @de_rr_ec_request_reference(ptr noundef %0, ptr noundef %1, ptr noundef %2, i32 noundef %3, ptr noundef %4) #1 {
  %6 = alloca ptr, align 8
  %7 = alloca ptr, align 8
  %8 = alloca ptr, align 8
  %9 = alloca i32, align 4
  %10 = alloca ptr, align 8
  %11 = alloca ptr, align 8
  %12 = alloca i32, align 4
  store ptr %0, ptr %6, align 8
  store ptr %1, ptr %7, align 8
  store ptr %2, ptr %8, align 8
  store i32 %3, ptr %9, align 4
  store ptr %4, ptr %10, align 8
  call void @llvm.lifetime.start.p0(i64 8, ptr %11) #11
  call void @llvm.lifetime.start.p0(i64 4, ptr %12) #11
  %13 = load i32, ptr %9, align 4
  store i32 %13, ptr %12, align 4
  %14 = load ptr, ptr %7, align 8
  %15 = load ptr, ptr %6, align 8
  %16 = load i32, ptr %12, align 4
  %17 = lshr i32 %16, 3
  %18 = load i32, ptr getelementptr ([90 x i32], ptr @ett_gsm_rr_elem, i64 0, i64 85), align 4
  %19 = call ptr @val_to_str_ext_const(i32 noundef 85, ptr noundef @gsm_rr_elem_strings_ext, ptr noundef @.str.84)
  %20 = load ptr, ptr %10, align 8
  %21 = icmp eq ptr %20, null
  br i1 %21, label %28, label %22

22:                                               ; preds = %5
  %23 = load ptr, ptr %10, align 8
  %24 = getelementptr i8, ptr %23, i64 0
  %25 = load i8, ptr %24, align 1
  %26 = sext i8 %25 to i32
  %27 = icmp eq i32 %26, 0
  br i1 %27, label %28, label %29

28:                                               ; preds = %22, %5
  br label %31

29:                                               ; preds = %22
  %30 = load ptr, ptr %10, align 8
  br label %31

31:                                               ; preds = %29, %28
  %32 = phi ptr [ @.str.84, %28 ], [ %30, %29 ]
  %33 = call ptr (ptr, ptr, i32, i32, i32, ptr, ptr, ...) @proto_tree_add_subtree_format(ptr noundef %14, ptr noundef %15, i32 noundef %17, i32 noundef 2, i32 noundef %18, ptr noundef null, ptr noundef @.str.3076, ptr noundef %19, ptr noundef %32)
  store ptr %33, ptr %11, align 8
  %34 = load ptr, ptr %11, align 8
  %35 = load i32, ptr @hf_gsm_a_rr_ec_last_tdma_frame, align 4
  %36 = load ptr, ptr %6, align 8
  %37 = load i32, ptr %12, align 4
  %38 = call ptr @proto_tree_add_bits_item(ptr noundef %34, i32 noundef %35, ptr noundef %36, i32 noundef %37, i32 noundef 10, i32 noundef 0)
  %39 = load i32, ptr %12, align 4
  %40 = add i32 %39, 10
  store i32 %40, ptr %12, align 4
  %41 = load ptr, ptr %11, align 8
  %42 = load i32, ptr @hf_gsm_a_rr_ec_echoed_random_bits, align 4
  %43 = load ptr, ptr %6, align 8
  %44 = load i32, ptr %12, align 4
  %45 = call ptr @proto_tree_add_bits_item(ptr noundef %41, i32 noundef %42, ptr noundef %43, i32 noundef %44, i32 noundef 3, i32 noundef 0)
  %46 = load i32, ptr %12, align 4
  %47 = add i32 %46, 3
  store i32 %47, ptr %12, align 4
  %48 = load i32, ptr %12, align 4
  %49 = load i32, ptr %9, align 4
  %50 = sub i32 %48, %49
  %51 = trunc i32 %50 to i16
  call void @llvm.lifetime.end.p0(i64 4, ptr %12) #11
  call void @llvm.lifetime.end.p0(i64 8, ptr %11) #11
  ret i16 %51
}

; Function Attrs: null_pointer_is_valid sspstrong uwtable
define internal zeroext i1 @gsm_rr_csn_flag(ptr noundef %0, ptr noundef %1, i32 noundef %2, i32 noundef %3) #1 {
  %5 = alloca ptr, align 8
  %6 = alloca ptr, align 8
  %7 = alloca i32, align 4
  %8 = alloca i32, align 4
  %9 = alloca i8, align 1
  %10 = alloca i8, align 1
  store ptr %0, ptr %5, align 8
  store ptr %1, ptr %6, align 8
  store i32 %2, ptr %7, align 4
  store i32 %3, ptr %8, align 4
  call void @llvm.lifetime.start.p0(i64 1, ptr %9) #11
  %11 = load i32, ptr %7, align 4
  %12 = srem i32 %11, 8
  %13 = ashr i32 128, %12
  %14 = trunc i32 %13 to i8
  store i8 %14, ptr %9, align 1
  call void @llvm.lifetime.start.p0(i64 1, ptr %10) #11
  %15 = load ptr, ptr %5, align 8
  %16 = load i32, ptr %7, align 4
  %17 = ashr i32 %16, 3
  %18 = call zeroext i8 @tvb_get_uint8(ptr noundef %15, i32 noundef %17)
  store i8 %18, ptr %10, align 1
  %19 = load ptr, ptr %6, align 8
  %20 = load i32, ptr %8, align 4
  %21 = load ptr, ptr %5, align 8
  %22 = load i32, ptr %7, align 4
  %23 = call ptr @proto_tree_add_bits_item(ptr noundef %19, i32 noundef %20, ptr noundef %21, i32 noundef %22, i32 noundef 1, i32 noundef 0)
  %24 = load i8, ptr %10, align 1
  %25 = zext i8 %24 to i32
  %26 = load i8, ptr %9, align 1
  %27 = zext i8 %26 to i32
  %28 = and i32 %25, %27
  %29 = icmp ne i32 %28, 0
  call void @llvm.lifetime.end.p0(i64 1, ptr %10) #11
  call void @llvm.lifetime.end.p0(i64 1, ptr %9) #11
  ret i1 %29
}

; Function Attrs: null_pointer_is_valid sspstrong uwtable
define internal void @dtap_rr_ec_imm_ass_rej(ptr noundef %0, ptr noundef %1, ptr noundef %2, i32 noundef %3, i32 noundef %4) #1 {
  %6 = alloca ptr, align 8
  %7 = alloca ptr, align 8
  %8 = alloca ptr, align 8
  %9 = alloca i32, align 4
  %10 = alloca i32, align 4
  %11 = alloca i32, align 4
  %12 = alloca i32, align 4
  store ptr %0, ptr %6, align 8
  store ptr %1, ptr %7, align 8
  store ptr %2, ptr %8, align 8
  store i32 %3, ptr %9, align 4
  store i32 %4, ptr %10, align 4
  call void @llvm.lifetime.start.p0(i64 4, ptr %11) #11
  call void @llvm.lifetime.start.p0(i64 4, ptr %12) #11
  %13 = load i32, ptr %9, align 4
  store i32 %13, ptr %11, align 4
  %14 = load i32, ptr %11, align 4
  %15 = shl i32 %14, 3
  store i32 %15, ptr %12, align 4
  %16 = load i32, ptr %12, align 4
  %17 = add i32 %16, 4
  store i32 %17, ptr %12, align 4
  %18 = load ptr, ptr %7, align 8
  %19 = load i32, ptr @hf_gsm_a_rr_ec_used_dl_cc, align 4
  %20 = load ptr, ptr %6, align 8
  %21 = load i32, ptr %12, align 4
  %22 = call ptr @proto_tree_add_bits_item(ptr noundef %18, i32 noundef %19, ptr noundef %20, i32 noundef %21, i32 noundef 2, i32 noundef 0)
  %23 = load i32, ptr %12, align 4
  %24 = add i32 %23, 2
  store i32 %24, ptr %12, align 4
  %25 = load ptr, ptr %6, align 8
  %26 = load ptr, ptr %7, align 8
  %27 = load i32, ptr %12, align 4
  %28 = add i32 %27, 1
  store i32 %28, ptr %12, align 4
  %29 = load i32, ptr @hf_gsm_a_rr_ec_page_extension_exist, align 4
  %30 = call zeroext i1 @gsm_rr_csn_flag(ptr noundef %25, ptr noundef %26, i32 noundef %27, i32 noundef %29)
  br i1 %30, label %31, label %39

31:                                               ; preds = %5
  %32 = load ptr, ptr %7, align 8
  %33 = load i32, ptr @hf_gsm_a_rr_ec_page_extension, align 4
  %34 = load ptr, ptr %6, align 8
  %35 = load i32, ptr %12, align 4
  %36 = call ptr @proto_tree_add_bits_item(ptr noundef %32, i32 noundef %33, ptr noundef %34, i32 noundef %35, i32 noundef 4, i32 noundef 0)
  %37 = load i32, ptr %12, align 4
  %38 = add i32 %37, 4
  store i32 %38, ptr %12, align 4
  br label %39

39:                                               ; preds = %31, %5
  %40 = load ptr, ptr %6, align 8
  %41 = load ptr, ptr %7, align 8
  %42 = load ptr, ptr %8, align 8
  %43 = load i32, ptr %12, align 4
  %44 = call zeroext i16 @de_rr_ec_request_reference(ptr noundef %40, ptr noundef %41, ptr noundef %42, i32 noundef %43, ptr noundef @.str.3077)
  %45 = zext i16 %44 to i32
  %46 = load i32, ptr %12, align 4
  %47 = add i32 %46, %45
  store i32 %47, ptr %12, align 4
  %48 = load ptr, ptr %7, align 8
  %49 = load i32, ptr @hf_gsm_a_rr_ec_wait_timer, align 4
  %50 = load ptr, ptr %6, align 8
  %51 = load i32, ptr %12, align 4
  %52 = call ptr @proto_tree_add_bits_item(ptr noundef %48, i32 noundef %49, ptr noundef %50, i32 noundef %51, i32 noundef 8, i32 noundef 0)
  %53 = load i32, ptr %12, align 4
  %54 = add i32 %53, 8
  store i32 %54, ptr %12, align 4
  %55 = load ptr, ptr %6, align 8
  %56 = load ptr, ptr %7, align 8
  %57 = load i32, ptr %12, align 4
  %58 = add i32 %57, 1
  store i32 %58, ptr %12, align 4
  %59 = load i32, ptr @hf_gsm_a_rr_ec_req_ref_2_present, align 4
  %60 = call zeroext i1 @gsm_rr_csn_flag(ptr noundef %55, ptr noundef %56, i32 noundef %57, i32 noundef %59)
  br i1 %60, label %61, label %77

61:                                               ; preds = %39
  %62 = load ptr, ptr %6, align 8
  %63 = load ptr, ptr %7, align 8
  %64 = load ptr, ptr %8, align 8
  %65 = load i32, ptr %12, align 4
  %66 = call zeroext i16 @de_rr_ec_request_reference(ptr noundef %62, ptr noundef %63, ptr noundef %64, i32 noundef %65, ptr noundef @.str.3078)
  %67 = zext i16 %66 to i32
  %68 = load i32, ptr %12, align 4
  %69 = add i32 %68, %67
  store i32 %69, ptr %12, align 4
  %70 = load ptr, ptr %7, align 8
  %71 = load i32, ptr @hf_gsm_a_rr_ec_wait_timer, align 4
  %72 = load ptr, ptr %6, align 8
  %73 = load i32, ptr %12, align 4
  %74 = call ptr @proto_tree_add_bits_item(ptr noundef %70, i32 noundef %71, ptr noundef %72, i32 noundef %73, i32 noundef 8, i32 noundef 0)
  %75 = load i32, ptr %12, align 4
  %76 = add i32 %75, 8
  store i32 %76, ptr %12, align 4
  br label %77

77:                                               ; preds = %61, %39
  %78 = load ptr, ptr %6, align 8
  %79 = load ptr, ptr %7, align 8
  %80 = load i32, ptr %12, align 4
  %81 = add i32 %80, 1
  store i32 %81, ptr %12, align 4
  %82 = load i32, ptr @hf_gsm_a_rr_ec_req_ref_3_present, align 4
  %83 = call zeroext i1 @gsm_rr_csn_flag(ptr noundef %78, ptr noundef %79, i32 noundef %80, i32 noundef %82)
  br i1 %83, label %84, label %98

84:                                               ; preds = %77
  %85 = load ptr, ptr %6, align 8
  %86 = load ptr, ptr %7, align 8
  %87 = load ptr, ptr %8, align 8
  %88 = load i32, ptr %12, align 4
  %89 = call zeroext i16 @de_rr_ec_request_reference(ptr noundef %85, ptr noundef %86, ptr noundef %87, i32 noundef %88, ptr noundef @.str.3079)
  %90 = zext i16 %89 to i32
  %91 = load i32, ptr %12, align 4
  %92 = add i32 %91, %90
  store i32 %92, ptr %12, align 4
  %93 = load ptr, ptr %7, align 8
  %94 = load i32, ptr @hf_gsm_a_rr_ec_wait_timer, align 4
  %95 = load ptr, ptr %6, align 8
  %96 = load i32, ptr %12, align 4
  %97 = call ptr @proto_tree_add_bits_item(ptr noundef %93, i32 noundef %94, ptr noundef %95, i32 noundef %96, i32 noundef 8, i32 noundef 0)
  br label %98

98:                                               ; preds = %84, %77
  call void @llvm.lifetime.end.p0(i64 4, ptr %12) #11
  call void @llvm.lifetime.end.p0(i64 4, ptr %11) #11
  ret void
}