; Function Attrs: null_pointer_is_valid sspstrong uwtable
define internal void @dtap_rr_ec_imm_ass_rej(ptr noundef %0, ptr noundef %1, ptr readnone captures(none) %2, i32 noundef %3, i32 %4) #3 {
  %6 = shl i32 %3, 3
  %7 = or disjoint i32 %6, 4
  %8 = load i32, ptr @hf_gsm_a_rr_ec_used_dl_cc, align 4
  %9 = tail call ptr @proto_tree_add_bits_item(ptr noundef %1, i32 noundef %8, ptr noundef %0, i32 noundef %7, i32 noundef 2, i32 noundef 0)
  %10 = or disjoint i32 %6, 6
  %11 = or disjoint i32 %6, 7
  %12 = load i32, ptr @hf_gsm_a_rr_ec_page_extension_exist, align 4
  %13 = ashr exact i32 %6, 3
  %14 = tail call zeroext i8 @tvb_get_uint8(ptr noundef %0, i32 noundef %13)
  %15 = tail call ptr @proto_tree_add_bits_item(ptr noundef %1, i32 noundef %12, ptr noundef %0, i32 noundef %10, i32 noundef 1, i32 noundef 0)
  %16 = and i8 %14, 2
  %.not = icmp eq i8 %16, 0
  br i1 %.not, label %21, label %17

17:                                               ; preds = %5
  %18 = load i32, ptr @hf_gsm_a_rr_ec_page_extension, align 4
  %19 = tail call ptr @proto_tree_add_bits_item(ptr noundef %1, i32 noundef %18, ptr noundef %0, i32 noundef %11, i32 noundef 4, i32 noundef 0)
  %20 = add i32 %6, 11
  br label %21

21:                                               ; preds = %17, %5
  %.0 = phi i32 [ %20, %17 ], [ %11, %5 ]
  %22 = load i32, ptr getelementptr inbounds nuw (i8, ptr @ett_gsm_rr_elem, i64 340), align 4
  %23 = tail call ptr @val_to_str_ext_const(i32 noundef 85, ptr noundef nonnull @gsm_rr_elem_strings_ext, ptr noundef nonnull @.str.84)
  %24 = lshr i32 %.0, 3
  %25 = tail call ptr (ptr, ptr, i32, i32, i32, ptr, ptr, ...) @proto_tree_add_subtree_format(ptr noundef %1, ptr noundef %0, i32 noundef %24, i32 noundef 2, i32 noundef %22, ptr noundef null, ptr noundef nonnull @.str.3076, ptr noundef %23, ptr noundef nonnull @.str.3077)
  %26 = load i32, ptr @hf_gsm_a_rr_ec_last_tdma_frame, align 4
  %27 = tail call ptr @proto_tree_add_bits_item(ptr noundef %25, i32 noundef %26, ptr noundef %0, i32 noundef %.0, i32 noundef 10, i32 noundef 0)
  %28 = add i32 %.0, 10
  %29 = load i32, ptr @hf_gsm_a_rr_ec_echoed_random_bits, align 4
  %30 = tail call ptr @proto_tree_add_bits_item(ptr noundef %25, i32 noundef %29, ptr noundef %0, i32 noundef %28, i32 noundef 3, i32 noundef 0)
  %31 = add i32 %.0, 13
  %32 = load i32, ptr @hf_gsm_a_rr_ec_wait_timer, align 4
  %33 = tail call ptr @proto_tree_add_bits_item(ptr noundef %1, i32 noundef %32, ptr noundef %0, i32 noundef %31, i32 noundef 8, i32 noundef 0)
  %34 = add i32 %.0, 21
  %35 = add i32 %.0, 22
  %36 = load i32, ptr @hf_gsm_a_rr_ec_req_ref_2_present, align 4
  %37 = and i32 %34, 7
  %38 = lshr exact i32 128, %37
  %39 = ashr i32 %34, 3
  %40 = tail call zeroext i8 @tvb_get_uint8(ptr noundef %0, i32 noundef %39)
  %41 = tail call ptr @proto_tree_add_bits_item(ptr noundef %1, i32 noundef %36, ptr noundef %0, i32 noundef %34, i32 noundef 1, i32 noundef 0)
  %42 = zext i8 %40 to i32
  %43 = and i32 %38, %42
  %.not45 = icmp eq i32 %43, 0
  br i1 %.not45, label %58, label %44

44:                                               ; preds = %21
  %45 = load i32, ptr getelementptr inbounds nuw (i8, ptr @ett_gsm_rr_elem, i64 340), align 4
  %46 = tail call ptr @val_to_str_ext_const(i32 noundef 85, ptr noundef nonnull @gsm_rr_elem_strings_ext, ptr noundef nonnull @.str.84)
  %47 = lshr i32 %35, 3
  %48 = tail call ptr (ptr, ptr, i32, i32, i32, ptr, ptr, ...) @proto_tree_add_subtree_format(ptr noundef %1, ptr noundef %0, i32 noundef %47, i32 noundef 2, i32 noundef %45, ptr noundef null, ptr noundef nonnull @.str.3076, ptr noundef %46, ptr noundef nonnull @.str.3078)
  %49 = load i32, ptr @hf_gsm_a_rr_ec_last_tdma_frame, align 4
  %50 = tail call ptr @proto_tree_add_bits_item(ptr noundef %48, i32 noundef %49, ptr noundef %0, i32 noundef %35, i32 noundef 10, i32 noundef 0)
  %51 = add i32 %.0, 32
  %52 = load i32, ptr @hf_gsm_a_rr_ec_echoed_random_bits, align 4
  %53 = tail call ptr @proto_tree_add_bits_item(ptr noundef %48, i32 noundef %52, ptr noundef %0, i32 noundef %51, i32 noundef 3, i32 noundef 0)
  %54 = add i32 %.0, 35
  %55 = load i32, ptr @hf_gsm_a_rr_ec_wait_timer, align 4
  %56 = tail call ptr @proto_tree_add_bits_item(ptr noundef %1, i32 noundef %55, ptr noundef %0, i32 noundef %54, i32 noundef 8, i32 noundef 0)
  %57 = add i32 %.0, 43
  br label %58

58:                                               ; preds = %44, %21
  %.1 = phi i32 [ %57, %44 ], [ %35, %21 ]
  %59 = load i32, ptr @hf_gsm_a_rr_ec_req_ref_3_present, align 4
  %60 = and i32 %.1, 7
  %61 = lshr exact i32 128, %60
  %62 = ashr i32 %.1, 3
  %63 = tail call zeroext i8 @tvb_get_uint8(ptr noundef %0, i32 noundef %62)
  %64 = tail call ptr @proto_tree_add_bits_item(ptr noundef %1, i32 noundef %59, ptr noundef %0, i32 noundef %.1, i32 noundef 1, i32 noundef 0)
  %65 = zext i8 %63 to i32
  %66 = and i32 %61, %65
  %.not46 = icmp eq i32 %66, 0
  br i1 %.not46, label %81, label %67

67:                                               ; preds = %58
  %68 = add i32 %.1, 1
  %69 = load i32, ptr getelementptr inbounds nuw (i8, ptr @ett_gsm_rr_elem, i64 340), align 4
  %70 = tail call ptr @val_to_str_ext_const(i32 noundef 85, ptr noundef nonnull @gsm_rr_elem_strings_ext, ptr noundef nonnull @.str.84)
  %71 = lshr i32 %68, 3
  %72 = tail call ptr (ptr, ptr, i32, i32, i32, ptr, ptr, ...) @proto_tree_add_subtree_format(ptr noundef %1, ptr noundef %0, i32 noundef %71, i32 noundef 2, i32 noundef %69, ptr noundef null, ptr noundef nonnull @.str.3076, ptr noundef %70, ptr noundef nonnull @.str.3079)
  %73 = load i32, ptr @hf_gsm_a_rr_ec_last_tdma_frame, align 4
  %74 = tail call ptr @proto_tree_add_bits_item(ptr noundef %72, i32 noundef %73, ptr noundef %0, i32 noundef %68, i32 noundef 10, i32 noundef 0)
  %75 = add i32 %.1, 11
  %76 = load i32, ptr @hf_gsm_a_rr_ec_echoed_random_bits, align 4
  %77 = tail call ptr @proto_tree_add_bits_item(ptr noundef %72, i32 noundef %76, ptr noundef %0, i32 noundef %75, i32 noundef 3, i32 noundef 0)
  %78 = add i32 %.1, 14
  %79 = load i32, ptr @hf_gsm_a_rr_ec_wait_timer, align 4
  %80 = tail call ptr @proto_tree_add_bits_item(ptr noundef %1, i32 noundef %79, ptr noundef %0, i32 noundef %78, i32 noundef 8, i32 noundef 0)
  br label %81

81:                                               ; preds = %67, %58
  ret void
}